; ModuleID = '55/429.c'
source_filename = "55/429.c"
target datalayout = "e-m:e-p270:32:32-p271:32:32-p272:64:64-i64:64-f80:128-n8:16:32:64-S128"
target triple = "x86_64-pc-linux-gnu"

@.str = private unnamed_addr constant [7 x i8] c"%d%s%d\00", align 1
@.str.1 = private unnamed_addr constant [3 x i8] c"%c\00", align 1
@.str.2 = private unnamed_addr constant [2 x i8] c"\0A\00", align 1

; Function Attrs: noinline nounwind uwtable
define dso_local void @MyStrupr(i8* %0) #0 {
  %2 = alloca i8*, align 8
  %3 = alloca i32, align 4
  store i8* %0, i8** %2, align 8
  store i32 0, i32* %3, align 4
  store i32 0, i32* %3, align 4
  br label %4

4:                                                ; preds = %36, %1
  %5 = load i32, i32* %3, align 4
  %6 = sext i32 %5 to i64
  %7 = load i8*, i8** %2, align 8
  %8 = call i64 @strlen(i8* %7) #4
  %9 = icmp ult i64 %6, %8
  br i1 %9, label %10, label %39

10:                                               ; preds = %4
  %11 = load i8*, i8** %2, align 8
  %12 = load i32, i32* %3, align 4
  %13 = sext i32 %12 to i64
  %14 = getelementptr inbounds i8, i8* %11, i64 %13
  %15 = load i8, i8* %14, align 1
  %16 = sext i8 %15 to i32
  %17 = icmp sge i32 %16, 97
  br i1 %17, label %18, label %35

18:                                               ; preds = %10
  %19 = load i8*, i8** %2, align 8
  %20 = load i32, i32* %3, align 4
  %21 = sext i32 %20 to i64
  %22 = getelementptr inbounds i8, i8* %19, i64 %21
  %23 = load i8, i8* %22, align 1
  %24 = sext i8 %23 to i32
  %25 = icmp sle i32 %24, 122
  br i1 %25, label %26, label %35

26:                                               ; preds = %18
  %27 = load i8*, i8** %2, align 8
  %28 = load i32, i32* %3, align 4
  %29 = sext i32 %28 to i64
  %30 = getelementptr inbounds i8, i8* %27, i64 %29
  %31 = load i8, i8* %30, align 1
  %32 = sext i8 %31 to i32
  %33 = sub nsw i32 %32, 32
  %34 = trunc i32 %33 to i8
  store i8 %34, i8* %30, align 1
  br label %35

35:                                               ; preds = %26, %18, %10
  br label %36

36:                                               ; preds = %35
  %37 = load i32, i32* %3, align 4
  %38 = add nsw i32 %37, 1
  store i32 %38, i32* %3, align 4
  br label %4

39:                                               ; preds = %4
  ret void
}

; Function Attrs: nounwind readonly
declare dso_local i64 @strlen(i8*) #1

; Function Attrs: noinline nounwind uwtable
define dso_local void @main() #0 {
  %1 = alloca i32, align 4
  %2 = alloca i32, align 4
  %3 = alloca i32, align 4
  %4 = alloca i32, align 4
  %5 = alloca i32, align 4
  %6 = alloca i32, align 4
  %7 = alloca [100 x i32], align 16
  %8 = alloca i64, align 8
  %9 = alloca [100 x i8], align 16
  %10 = alloca [100 x i8], align 16
  %11 = getelementptr inbounds [100 x i8], [100 x i8]* %9, i64 0, i64 0
  %12 = call i32 (i8*, ...) @__isoc99_scanf(i8* getelementptr inbounds ([7 x i8], [7 x i8]* @.str, i64 0, i64 0), i32* %1, i8* %11, i32* %2)
  %13 = getelementptr inbounds [100 x i8], [100 x i8]* %9, i64 0, i64 0
  call void @MyStrupr(i8* %13)
  %14 = getelementptr inbounds [100 x i8], [100 x i8]* %9, i64 0, i64 0
  %15 = call i64 @strlen(i8* %14) #4
  %16 = trunc i64 %15 to i32
  store i32 %16, i32* %3, align 4
  store i64 0, i64* %8, align 8
  store i32 0, i32* %4, align 4
  br label %17

17:                                               ; preds = %75, %0
  %18 = load i32, i32* %4, align 4
  %19 = load i32, i32* %3, align 4
  %20 = sub nsw i32 %19, 1
  %21 = icmp sle i32 %18, %20
  br i1 %21, label %22, label %78

22:                                               ; preds = %17
  %23 = load i32, i32* %4, align 4
  %24 = sext i32 %23 to i64
  %25 = getelementptr inbounds [100 x i8], [100 x i8]* %9, i64 0, i64 %24
  %26 = load i8, i8* %25, align 1
  %27 = sext i8 %26 to i32
  %28 = icmp sge i32 %27, 65
  br i1 %28, label %29, label %46

29:                                               ; preds = %22
  %30 = load i32, i32* %4, align 4
  %31 = sext i32 %30 to i64
  %32 = getelementptr inbounds [100 x i8], [100 x i8]* %9, i64 0, i64 %31
  %33 = load i8, i8* %32, align 1
  %34 = sext i8 %33 to i32
  %35 = icmp sle i32 %34, 90
  br i1 %35, label %36, label %46

36:                                               ; preds = %29
  %37 = load i32, i32* %4, align 4
  %38 = sext i32 %37 to i64
  %39 = getelementptr inbounds [100 x i8], [100 x i8]* %9, i64 0, i64 %38
  %40 = load i8, i8* %39, align 1
  %41 = sext i8 %40 to i32
  %42 = sub nsw i32 %41, 55
  %43 = load i32, i32* %4, align 4
  %44 = sext i32 %43 to i64
  %45 = getelementptr inbounds [100 x i32], [100 x i32]* %7, i64 0, i64 %44
  store i32 %42, i32* %45, align 4
  br label %56

46:                                               ; preds = %29, %22
  %47 = load i32, i32* %4, align 4
  %48 = sext i32 %47 to i64
  %49 = getelementptr inbounds [100 x i8], [100 x i8]* %9, i64 0, i64 %48
  %50 = load i8, i8* %49, align 1
  %51 = sext i8 %50 to i32
  %52 = sub nsw i32 %51, 48
  %53 = load i32, i32* %4, align 4
  %54 = sext i32 %53 to i64
  %55 = getelementptr inbounds [100 x i32], [100 x i32]* %7, i64 0, i64 %54
  store i32 %52, i32* %55, align 4
  br label %56

56:                                               ; preds = %46, %36
  %57 = load i64, i64* %8, align 8
  %58 = sitofp i64 %57 to double
  %59 = load i32, i32* %1, align 4
  %60 = sitofp i32 %59 to double
  %61 = load i32, i32* %3, align 4
  %62 = sub nsw i32 %61, 1
  %63 = load i32, i32* %4, align 4
  %64 = sub nsw i32 %62, %63
  %65 = sitofp i32 %64 to double
  %66 = call double @pow(double %60, double %65) #5
  %67 = load i32, i32* %4, align 4
  %68 = sext i32 %67 to i64
  %69 = getelementptr inbounds [100 x i32], [100 x i32]* %7, i64 0, i64 %68
  %70 = load i32, i32* %69, align 4
  %71 = sitofp i32 %70 to double
  %72 = fmul double %66, %71
  %73 = fadd double %58, %72
  %74 = fptosi double %73 to i64
  store i64 %74, i64* %8, align 8
  br label %75

75:                                               ; preds = %56
  %76 = load i32, i32* %4, align 4
  %77 = add nsw i32 %76, 1
  store i32 %77, i32* %4, align 4
  br label %17

78:                                               ; preds = %17
  store i32 0, i32* %5, align 4
  br label %79

79:                                               ; preds = %118, %78
  %80 = load i64, i64* %8, align 8
  %81 = load i32, i32* %2, align 4
  %82 = sext i32 %81 to i64
  %83 = icmp sge i64 %80, %82
  br i1 %83, label %84, label %125

84:                                               ; preds = %79
  %85 = load i64, i64* %8, align 8
  %86 = load i32, i32* %2, align 4
  %87 = sext i32 %86 to i64
  %88 = srem i64 %85, %87
  %89 = trunc i64 %88 to i32
  %90 = load i32, i32* %5, align 4
  %91 = sext i32 %90 to i64
  %92 = getelementptr inbounds [100 x i32], [100 x i32]* %7, i64 0, i64 %91
  store i32 %89, i32* %92, align 4
  %93 = load i32, i32* %5, align 4
  %94 = sext i32 %93 to i64
  %95 = getelementptr inbounds [100 x i32], [100 x i32]* %7, i64 0, i64 %94
  %96 = load i32, i32* %95, align 4
  %97 = icmp sgt i32 %96, 9
  br i1 %97, label %98, label %108

98:                                               ; preds = %84
  %99 = load i32, i32* %5, align 4
  %100 = sext i32 %99 to i64
  %101 = getelementptr inbounds [100 x i32], [100 x i32]* %7, i64 0, i64 %100
  %102 = load i32, i32* %101, align 4
  %103 = add nsw i32 %102, 55
  %104 = trunc i32 %103 to i8
  %105 = load i32, i32* %5, align 4
  %106 = sext i32 %105 to i64
  %107 = getelementptr inbounds [100 x i8], [100 x i8]* %10, i64 0, i64 %106
  store i8 %104, i8* %107, align 1
  br label %118

108:                                              ; preds = %84
  %109 = load i32, i32* %5, align 4
  %110 = sext i32 %109 to i64
  %111 = getelementptr inbounds [100 x i32], [100 x i32]* %7, i64 0, i64 %110
  %112 = load i32, i32* %111, align 4
  %113 = add nsw i32 %112, 48
  %114 = trunc i32 %113 to i8
  %115 = load i32, i32* %5, align 4
  %116 = sext i32 %115 to i64
  %117 = getelementptr inbounds [100 x i8], [100 x i8]* %10, i64 0, i64 %116
  store i8 %114, i8* %117, align 1
  br label %118

118:                                              ; preds = %108, %98
  %119 = load i64, i64* %8, align 8
  %120 = load i32, i32* %2, align 4
  %121 = sext i32 %120 to i64
  %122 = sdiv i64 %119, %121
  store i64 %122, i64* %8, align 8
  %123 = load i32, i32* %5, align 4
  %124 = add nsw i32 %123, 1
  store i32 %124, i32* %5, align 4
  br label %79

125:                                              ; preds = %79
  %126 = load i64, i64* %8, align 8
  %127 = icmp sgt i64 %126, 9
  br i1 %127, label %128, label %135

128:                                              ; preds = %125
  %129 = load i64, i64* %8, align 8
  %130 = add nsw i64 %129, 55
  %131 = trunc i64 %130 to i8
  %132 = load i32, i32* %5, align 4
  %133 = sext i32 %132 to i64
  %134 = getelementptr inbounds [100 x i8], [100 x i8]* %10, i64 0, i64 %133
  store i8 %131, i8* %134, align 1
  br label %142

135:                                              ; preds = %125
  %136 = load i64, i64* %8, align 8
  %137 = add nsw i64 %136, 48
  %138 = trunc i64 %137 to i8
  %139 = load i32, i32* %5, align 4
  %140 = sext i32 %139 to i64
  %141 = getelementptr inbounds [100 x i8], [100 x i8]* %10, i64 0, i64 %140
  store i8 %138, i8* %141, align 1
  br label %142

142:                                              ; preds = %135, %128
  store i32 0, i32* %4, align 4
  br label %143

143:                                              ; preds = %156, %142
  %144 = load i32, i32* %4, align 4
  %145 = load i32, i32* %5, align 4
  %146 = icmp sle i32 %144, %145
  br i1 %146, label %147, label %159

147:                                              ; preds = %143
  %148 = load i32, i32* %5, align 4
  %149 = load i32, i32* %4, align 4
  %150 = sub nsw i32 %148, %149
  %151 = sext i32 %150 to i64
  %152 = getelementptr inbounds [100 x i8], [100 x i8]* %10, i64 0, i64 %151
  %153 = load i8, i8* %152, align 1
  %154 = sext i8 %153 to i32
  %155 = call i32 (i8*, ...) @printf(i8* getelementptr inbounds ([3 x i8], [3 x i8]* @.str.1, i64 0, i64 0), i32 %154)
  br label %156

156:                                              ; preds = %147
  %157 = load i32, i32* %4, align 4
  %158 = add nsw i32 %157, 1
  store i32 %158, i32* %4, align 4
  br label %143

159:                                              ; preds = %143
  %160 = call i32 (i8*, ...) @printf(i8* getelementptr inbounds ([2 x i8], [2 x i8]* @.str.2, i64 0, i64 0))
  ret void
}

declare dso_local i32 @__isoc99_scanf(i8*, ...) #2

; Function Attrs: nounwind
declare dso_local double @pow(double, double) #3

declare dso_local i32 @printf(i8*, ...) #2


!llvm.module.flags = !{!0}
!llvm.ident = !{!1}

!0 = !{i32 1, !"wchar_size", i32 4}
!1 = !{!"clang version 10.0.0-4ubuntu1 "}
